; Function Attrs: mustprogress nounwind uwtable
define dso_local void @_ZNK4node9inspector8protocol15SerializedValue11writeBinaryEPSt6vectorIhSaIhEE(ptr nocapture noundef nonnull readonly align 8 dereferenceable(72) %this, ptr noundef nonnull %output) unnamed_addr #1 align 2 {
entry:
  %_M_finish.i = getelementptr inbounds i8, ptr %output, i64 8
  %0 = load ptr, ptr %_M_finish.i, align 8
  %m_serializedBinary = getelementptr inbounds i8, ptr %this, i64 48
  %1 = load ptr, ptr %m_serializedBinary, align 8
  %_M_finish.i2 = getelementptr inbounds i8, ptr %this, i64 56
  %2 = load ptr, ptr %_M_finish.i2, align 8
  %3 = load ptr, ptr %output, align 8
  %sub.ptr.lhs.cast.i.i = ptrtoint ptr %0 to i64
  %sub.ptr.rhs.cast.i.i = ptrtoint ptr %3 to i64
  %sub.ptr.sub.i.i = sub i64 %sub.ptr.lhs.cast.i.i, %sub.ptr.rhs.cast.i.i
  %add.ptr.i.i = getelementptr inbounds i8, ptr %3, i64 %sub.ptr.sub.i.i
  tail call void @_ZNSt6vectorIhSaIhEE15_M_range_insertIN9__gnu_cxx17__normal_iteratorIPKhS1_EEEEvNS4_IPhS1_EET_SA_St20forward_iterator_tag(ptr noundef nonnull align 8 dereferenceable(24) %output, ptr %add.ptr.i.i, ptr %1, ptr %2)
  ret void
}